; ModuleID = 'source-C-CXX/15/593.cpp'
source_filename = "source-C-CXX/15/593.cpp"
target datalayout = "e-m:e-p270:32:32-p271:32:32-p272:64:64-i64:64-f80:128-n8:16:32:64-S128"
target triple = "x86_64-pc-linux-gnu"

%"class.std::ios_base::Init" = type { i8 }
%"class.std::basic_istream" = type { i32 (...)**, i64, %"class.std::basic_ios" }
%"class.std::basic_ios" = type { %"class.std::ios_base", %"class.std::basic_ostream"*, i8, i8, %"class.std::basic_streambuf"*, %"class.std::ctype"*, %"class.std::num_put"*, %"class.std::num_get"* }
%"class.std::ios_base" = type { i32 (...)**, i64, i64, i32, i32, i32, %"struct.std::ios_base::_Callback_list"*, %"struct.std::ios_base::_Words", [8 x %"struct.std::ios_base::_Words"], i32, %"struct.std::ios_base::_Words"*, %"class.std::locale" }
%"struct.std::ios_base::_Callback_list" = type { %"struct.std::ios_base::_Callback_list"*, void (i32, %"class.std::ios_base"*, i32)*, i32, i32 }
%"struct.std::ios_base::_Words" = type { i8*, i64 }
%"class.std::locale" = type { %"class.std::locale::_Impl"* }
%"class.std::locale::_Impl" = type { i32, %"class.std::locale::facet"**, i64, %"class.std::locale::facet"**, i8** }
%"class.std::locale::facet" = type <{ i32 (...)**, i32, [4 x i8] }>
%"class.std::basic_ostream" = type { i32 (...)**, %"class.std::basic_ios" }
%"class.std::basic_streambuf" = type { i32 (...)**, i8*, i8*, i8*, i8*, i8*, i8*, %"class.std::locale" }
%"class.std::ctype" = type <{ %"class.std::locale::facet.base", [4 x i8], %struct.__locale_struct*, i8, [7 x i8], i32*, i32*, i16*, i8, [256 x i8], [256 x i8], i8, [6 x i8] }>
%"class.std::locale::facet.base" = type <{ i32 (...)**, i32 }>
%struct.__locale_struct = type { [13 x %struct.__locale_data*], i16*, i32*, i32*, [13 x i8*] }
%struct.__locale_data = type opaque
%"class.std::num_put" = type { %"class.std::locale::facet.base", [4 x i8] }
%"class.std::num_get" = type { %"class.std::locale::facet.base", [4 x i8] }

@_ZStL8__ioinit = internal global %"class.std::ios_base::Init" zeroinitializer, align 1
@__dso_handle = external hidden global i8
@_ZSt3cin = external global %"class.std::basic_istream", align 8
@_ZSt4cout = external global %"class.std::basic_ostream", align 8
@llvm.global_ctors = appending global [1 x { i32, void ()*, i8* }] [{ i32, void ()*, i8* } { i32 65535, void ()* @_GLOBAL__sub_I_593.cpp, i8* null }]

declare void @_ZNSt8ios_base4InitC1Ev(%"class.std::ios_base::Init"* nonnull align 1 dereferenceable(1)) unnamed_addr #0

; Function Attrs: nounwind
declare void @_ZNSt8ios_base4InitD1Ev(%"class.std::ios_base::Init"* nonnull align 1 dereferenceable(1)) unnamed_addr #1

; Function Attrs: nofree nounwind
declare i32 @__cxa_atexit(void (i8*)*, i8*, i8*) local_unnamed_addr #2

; Function Attrs: mustprogress norecurse sspstrong uwtable
define dso_local i32 @main() local_unnamed_addr #3 {
  %1 = alloca i32, align 4
  %2 = alloca [5 x i32], align 16
  %3 = bitcast i32* %1 to i8*
  call void @llvm.lifetime.start.p0i8(i64 4, i8* nonnull %3) #6
  %4 = bitcast [5 x i32]* %2 to i8*
  call void @llvm.lifetime.start.p0i8(i64 20, i8* nonnull %4) #6
  %5 = call nonnull align 8 dereferenceable(16) %"class.std::basic_istream"* @_ZNSirsERi(%"class.std::basic_istream"* nonnull align 8 dereferenceable(16) @_ZSt3cin, i32* nonnull align 4 dereferenceable(4) %1)
  %6 = load i32, i32* %1, align 4, !tbaa !5
  %7 = icmp sgt i32 %6, 9
  br i1 %7, label %16, label %10

8:                                                ; preds = %16
  %9 = zext i32 %20 to i64
  br label %10

10:                                               ; preds = %8, %0
  %11 = phi i64 [ 1, %0 ], [ %9, %8 ]
  %12 = and i64 %11, 1
  %13 = icmp eq i64 %11, 1
  br i1 %13, label %22, label %14

14:                                               ; preds = %10
  %15 = and i64 %11, 4294967294
  br label %33

16:                                               ; preds = %0, %16
  %17 = phi i32 [ %20, %16 ], [ 1, %0 ]
  %18 = phi i32 [ %19, %16 ], [ %6, %0 ]
  %19 = udiv i32 %18, 10
  %20 = add nuw nsw i32 %17, 1
  %21 = icmp ugt i32 %18, 99
  br i1 %21, label %16, label %8, !llvm.loop !9

22:                                               ; preds = %33, %10
  %23 = phi i32 [ undef, %10 ], [ %43, %33 ]
  %24 = phi i64 [ 0, %10 ], [ %44, %33 ]
  %25 = phi i32 [ %6, %10 ], [ %43, %33 ]
  %26 = icmp eq i64 %12, 0
  br i1 %26, label %31, label %27

27:                                               ; preds = %22
  %28 = srem i32 %25, 10
  %29 = sdiv i32 %25, 10
  %30 = getelementptr inbounds [5 x i32], [5 x i32]* %2, i64 0, i64 %24
  store i32 %28, i32* %30, align 4, !tbaa !5
  br label %31

31:                                               ; preds = %22, %27
  %32 = phi i32 [ %23, %22 ], [ %29, %27 ]
  store i32 %32, i32* %1, align 4, !tbaa !5
  br label %47

33:                                               ; preds = %33, %14
  %34 = phi i64 [ 0, %14 ], [ %44, %33 ]
  %35 = phi i32 [ %6, %14 ], [ %43, %33 ]
  %36 = phi i64 [ %15, %14 ], [ %45, %33 ]
  %37 = srem i32 %35, 10
  %38 = getelementptr inbounds [5 x i32], [5 x i32]* %2, i64 0, i64 %34
  store i32 %37, i32* %38, align 8, !tbaa !5
  %39 = sdiv i32 %35, 10
  %40 = or i64 %34, 1
  %41 = srem i32 %39, 10
  %42 = getelementptr inbounds [5 x i32], [5 x i32]* %2, i64 0, i64 %40
  store i32 %41, i32* %42, align 4, !tbaa !5
  %43 = sdiv i32 %35, 100
  %44 = add nuw nsw i64 %34, 2
  %45 = add i64 %36, -2
  %46 = icmp eq i64 %45, 0
  br i1 %46, label %22, label %33, !llvm.loop !11

47:                                               ; preds = %31, %47
  %48 = phi i64 [ 0, %31 ], [ %52, %47 ]
  %49 = getelementptr inbounds [5 x i32], [5 x i32]* %2, i64 0, i64 %48
  %50 = load i32, i32* %49, align 4, !tbaa !5
  %51 = call nonnull align 8 dereferenceable(8) %"class.std::basic_ostream"* @_ZNSolsEi(%"class.std::basic_ostream"* nonnull align 8 dereferenceable(8) @_ZSt4cout, i32 %50)
  %52 = add nuw nsw i64 %48, 1
  %53 = icmp eq i64 %52, %11
  br i1 %53, label %54, label %47, !llvm.loop !12

54:                                               ; preds = %47
  call void @llvm.lifetime.end.p0i8(i64 20, i8* nonnull %4) #6
  call void @llvm.lifetime.end.p0i8(i64 4, i8* nonnull %3) #6
  ret i32 0
}

; Function Attrs: argmemonly mustprogress nofree nosync nounwind willreturn
declare void @llvm.lifetime.start.p0i8(i64 immarg, i8* nocapture) #4

declare nonnull align 8 dereferenceable(16) %"class.std::basic_istream"* @_ZNSirsERi(%"class.std::basic_istream"* nonnull align 8 dereferenceable(16), i32* nonnull align 4 dereferenceable(4)) local_unnamed_addr #0

declare nonnull align 8 dereferenceable(8) %"class.std::basic_ostream"* @_ZNSolsEi(%"class.std::basic_ostream"* nonnull align 8 dereferenceable(8), i32) local_unnamed_addr #0

; Function Attrs: argmemonly mustprogress nofree nosync nounwind willreturn
declare void @llvm.lifetime.end.p0i8(i64 immarg, i8* nocapture) #4

; Function Attrs: sspstrong uwtable
define internal void @_GLOBAL__sub_I_593.cpp() #5 section ".text.startup" {
  tail call void @_ZNSt8ios_base4InitC1Ev(%"class.std::ios_base::Init"* nonnull align 1 dereferenceable(1) @_ZStL8__ioinit)
  %1 = tail call i32 @__cxa_atexit(void (i8*)* bitcast (void (%"class.std::ios_base::Init"*)* @_ZNSt8ios_base4InitD1Ev to void (i8*)*), i8* getelementptr inbounds (%"class.std::ios_base::Init", %"class.std::ios_base::Init"* @_ZStL8__ioinit, i64 0, i32 0), i8* nonnull @__dso_handle) #6
  ret void
}


!llvm.module.flags = !{!0, !1, !2, !3}
!llvm.ident = !{!4}

!0 = !{i32 1, !"wchar_size", i32 4}
!1 = !{i32 7, !"PIC Level", i32 2}
!2 = !{i32 7, !"PIE Level", i32 2}
!3 = !{i32 7, !"uwtable", i32 1}
!4 = !{!"clang version 13.0.0"}
!5 = !{!6, !6, i64 0}
!6 = !{!"int", !7, i64 0}
!7 = !{!"omnipotent char", !8, i64 0}
!8 = !{!"Simple C++ TBAA"}
!9 = distinct !{!9, !10}
!10 = !{!"llvm.loop.mustprogress"}
!11 = distinct !{!11, !10}
!12 = distinct !{!12, !10}
